; Function Attrs: nounwind uwtable
define internal noundef i32 @index_output_cb(ptr readnone captures(none) %0, ptr noundef %1, i32 noundef %2) #0 {
  %.not = icmp eq i32 %2, 0
  br i1 %.not, label %5, label %4

4:                                                ; preds = %3
  tail call void (ptr, i32, ptr, ...) @BUG_fl(ptr noundef nonnull @.str.49, i32 noundef 51, ptr noundef nonnull @.str.50) #12
  unreachable

5:                                                ; preds = %3
  tail call void @set_alternate_index_output(ptr noundef %1) #11
  ret i32 0
}